; Function Attrs: mustprogress nounwind uwtable
define hidden void @_ZN12LinkResolver24cds_resolve_virtual_callER8CallInfoRK8LinkInfoP10JavaThread(ptr noundef nonnull align 8 dereferenceable(64) %0, ptr nocapture noundef nonnull readonly align 8 dereferenceable(51) %1, ptr noundef %2) local_unnamed_addr #0 align 2 {
  %4 = alloca %class.methodHandle, align 8
  %5 = tail call noundef ptr @_ZN12LinkResolver31linktime_resolve_virtual_methodERK8LinkInfoP10JavaThread(ptr noundef nonnull align 8 dereferenceable(51) %1, ptr noundef %2)
  %6 = getelementptr inbounds i8, ptr %2, i64 8
  %7 = load ptr, ptr %6, align 8
  %.not = icmp eq ptr %7, null
  br i1 %.not, label %8, label %35

8:                                                ; preds = %3
  store ptr %5, ptr %4, align 8
  %9 = getelementptr inbounds i8, ptr %4, i64 8
  store ptr %2, ptr %9, align 8
  %.not.i = icmp eq ptr %5, null
  br i1 %.not.i, label %_ZN12methodHandleC2EP6ThreadP6Method.exit, label %10

10:                                               ; preds = %8
  %11 = getelementptr inbounds i8, ptr %2, i64 816
  %12 = load ptr, ptr %11, align 8
  %13 = load i32, ptr %12, align 8
  %14 = getelementptr inbounds i8, ptr %12, i64 4
  %15 = load i32, ptr %14, align 4
  %16 = icmp eq i32 %13, %15
  br i1 %16, label %17, label %_ZN26GrowableArrayWithAllocatorIP8Metadata13GrowableArrayIS1_EE4pushERKS1_.exit.i

17:                                               ; preds = %10
  %18 = add nsw i32 %13, 1
  %19 = icmp sgt i32 %13, -1
  %20 = xor i32 %13, -2147483648
  %21 = and i32 %20, %18
  %22 = icmp eq i32 %21, 0
  %23 = and i1 %19, %22
  %24 = tail call range(i32 0, 33) i32 @llvm.ctlz.i32(i32 %18, i1 true)
  %25 = sub nuw nsw i32 32, %24
  %26 = shl nuw i32 1, %25
  %.0.i.i.i.i.i.i = select i1 %23, i32 %18, i32 %26
  tail call void @_ZN26GrowableArrayWithAllocatorIP8Metadata13GrowableArrayIS1_EE9expand_toEi(ptr noundef nonnull align 8 dereferenceable(16) %12, i32 noundef %.0.i.i.i.i.i.i)
  %.pre.i.i.i = load i32, ptr %12, align 8
  br label %_ZN26GrowableArrayWithAllocatorIP8Metadata13GrowableArrayIS1_EE4pushERKS1_.exit.i

_ZN26GrowableArrayWithAllocatorIP8Metadata13GrowableArrayIS1_EE4pushERKS1_.exit.i: ; preds = %17, %10
  %27 = phi i32 [ %.pre.i.i.i, %17 ], [ %13, %10 ]
  %28 = add nsw i32 %27, 1
  store i32 %28, ptr %12, align 8
  %29 = getelementptr inbounds i8, ptr %12, i64 8
  %30 = load ptr, ptr %29, align 8
  %31 = sext i32 %27 to i64
  %32 = getelementptr inbounds ptr, ptr %30, i64 %31
  store ptr %5, ptr %32, align 8
  br label %_ZN12methodHandleC2EP6ThreadP6Method.exit

_ZN12methodHandleC2EP6ThreadP6Method.exit:        ; preds = %8, %_ZN26GrowableArrayWithAllocatorIP8Metadata13GrowableArrayIS1_EE4pushERKS1_.exit.i
  %33 = getelementptr inbounds i8, ptr %1, i64 16
  %34 = load ptr, ptr %33, align 8
  call void @_ZN12LinkResolver30runtime_resolve_virtual_methodER8CallInfoRK12methodHandleP5Klass6HandleS6_bbP10JavaThread(ptr noundef nonnull align 8 dereferenceable(64) %0, ptr noundef nonnull align 8 dereferenceable(16) %4, ptr noundef %34, ptr null, ptr noundef null, i1 noundef zeroext false, i1 noundef zeroext true, ptr noundef nonnull %2)
  call void @_ZN12methodHandleD1Ev(ptr noundef nonnull align 8 dereferenceable(16) %4) #10
  br label %35

35:                                               ; preds = %_ZN12methodHandleC2EP6ThreadP6Method.exit, %3
  ret void
}